; Function Attrs: nounwind uwtable
define hidden noundef signext i8 @nfaExecLbrDot_initCompressedState(ptr noundef %0, i64 noundef %1, ptr noundef %2, i8 noundef zeroext %3) local_unnamed_addr #0 {
  %5 = alloca %struct.lbr_state, align 8
  %6 = getelementptr inbounds nuw i8, ptr %0, i64 64
  %7 = load i32, ptr %6, align 4
  %8 = zext i32 %7 to i64
  %9 = getelementptr inbounds nuw i8, ptr %6, i64 %8
  call void @llvm.lifetime.start.p0(i64 24, ptr nonnull %5) #8
  %10 = load i8, ptr %9, align 4
  switch i8 %10, label %.split.i [
    i8 0, label %.split.i.thread
    i8 3, label %.split.i.thread20
    i8 1, label %clearRepeat.exit
    i8 2, label %clearRepeat.exit
    i8 4, label %.split.i.thread21
    i8 5, label %.split.i.thread22
    i8 6, label %.split.i.thread23
    i8 7, label %lbrTop.exit
  ]

.split.i.thread:                                  ; preds = %4
  %11 = getelementptr inbounds nuw i8, ptr %5, i64 8
  store i64 -1, ptr %11, align 8
  %12 = getelementptr inbounds nuw i8, ptr %9, i64 16
  %13 = load i32, ptr %12, align 4
  %14 = zext i32 %13 to i64
  %15 = getelementptr inbounds nuw i8, ptr %2, i64 %14
  %16 = getelementptr inbounds nuw i8, ptr %5, i64 8
  br label %39

.split.i.thread20:                                ; preds = %4
  %17 = getelementptr inbounds nuw i8, ptr %5, i64 8
  store i64 -1, ptr %17, align 8
  %18 = getelementptr inbounds nuw i8, ptr %9, i64 16
  %19 = load i32, ptr %18, align 4
  %20 = zext i32 %19 to i64
  %21 = getelementptr inbounds nuw i8, ptr %2, i64 %20
  %22 = getelementptr inbounds nuw i8, ptr %5, i64 8
  br label %44

clearRepeat.exit:                                 ; preds = %4, %4
  %23 = getelementptr inbounds nuw i8, ptr %5, i64 8
  store i64 -1, ptr %23, align 8
  %cond = icmp eq i8 %10, 7
  br i1 %cond, label %lbrTop.exit, label %.split.i

.split.i.thread21:                                ; preds = %4
  %24 = getelementptr inbounds nuw i8, ptr %5, i64 8
  store i64 -1, ptr %24, align 8
  %25 = getelementptr inbounds nuw i8, ptr %5, i64 8
  br label %47

.split.i.thread22:                                ; preds = %4
  %26 = getelementptr inbounds nuw i8, ptr %5, i64 8
  store i64 -1, ptr %26, align 8
  %27 = getelementptr inbounds nuw i8, ptr %9, i64 16
  %28 = load i32, ptr %27, align 4
  %29 = zext i32 %28 to i64
  %30 = getelementptr inbounds nuw i8, ptr %2, i64 %29
  %31 = getelementptr inbounds nuw i8, ptr %5, i64 8
  br label %49

.split.i.thread23:                                ; preds = %4
  %32 = getelementptr inbounds nuw i8, ptr %5, i64 8
  store i64 -1, ptr %32, align 8
  %33 = getelementptr inbounds nuw i8, ptr %5, i64 8
  br label %52

.split.i:                                         ; preds = %4, %clearRepeat.exit
  %34 = getelementptr inbounds nuw i8, ptr %9, i64 16
  %35 = load i32, ptr %34, align 4
  %36 = zext i32 %35 to i64
  %37 = getelementptr inbounds nuw i8, ptr %2, i64 %36
  %38 = getelementptr inbounds nuw i8, ptr %5, i64 8
  switch i8 %10, label %lbrTop.exit [
    i8 0, label %39
    i8 1, label %42
    i8 2, label %43
    i8 3, label %44
    i8 4, label %47
    i8 5, label %49
    i8 6, label %52
  ]

39:                                               ; preds = %.split.i.thread, %.split.i
  %40 = phi ptr [ %16, %.split.i.thread ], [ %38, %.split.i ]
  %41 = phi ptr [ %15, %.split.i.thread ], [ %37, %.split.i ]
  call void @repeatStoreRing(ptr noundef nonnull %9, ptr noundef nonnull %40, ptr noundef %41, i64 noundef %1, i8 noundef signext 0) #8
  br label %lbrTop.exit

42:                                               ; preds = %.split.i
  store i64 %1, ptr %38, align 8
  br label %lbrTop.exit

43:                                               ; preds = %.split.i
  store i64 %1, ptr %38, align 8
  br label %lbrTop.exit

44:                                               ; preds = %.split.i.thread20, %.split.i
  %45 = phi ptr [ %22, %.split.i.thread20 ], [ %38, %.split.i ]
  %46 = phi ptr [ %21, %.split.i.thread20 ], [ %37, %.split.i ]
  call void @repeatStoreRange(ptr noundef nonnull %9, ptr noundef nonnull %45, ptr noundef %46, i64 noundef %1, i8 noundef signext 0) #8
  br label %lbrTop.exit

47:                                               ; preds = %.split.i.thread21, %.split.i
  %48 = phi ptr [ %25, %.split.i.thread21 ], [ %38, %.split.i ]
  call void @repeatStoreBitmap(ptr noundef nonnull %9, ptr noundef nonnull %48, i64 noundef %1, i8 noundef signext 0) #8
  br label %lbrTop.exit

49:                                               ; preds = %.split.i.thread22, %.split.i
  %50 = phi ptr [ %31, %.split.i.thread22 ], [ %38, %.split.i ]
  %51 = phi ptr [ %30, %.split.i.thread22 ], [ %37, %.split.i ]
  call void @repeatStoreSparseOptimalP(ptr noundef nonnull %9, ptr noundef nonnull %50, ptr noundef %51, i64 noundef %1, i8 noundef signext 0) #8
  br label %lbrTop.exit

52:                                               ; preds = %.split.i.thread23, %.split.i
  %53 = phi ptr [ %33, %.split.i.thread23 ], [ %38, %.split.i ]
  call void @repeatStoreTrailer(ptr noundef nonnull %9, ptr noundef nonnull %53, i64 noundef %1, i8 noundef signext 0) #8
  br label %lbrTop.exit

lbrTop.exit:                                      ; preds = %4, %clearRepeat.exit, %52, %49, %47, %44, %43, %42, %39, %.split.i
  %54 = load i32, ptr %6, align 4
  %55 = zext i32 %54 to i64
  %56 = getelementptr inbounds nuw i8, ptr %6, i64 %55
  %57 = getelementptr inbounds nuw i8, ptr %5, i64 8
  call void @repeatPack(ptr noundef %2, ptr noundef nonnull %56, ptr noundef nonnull %57, i64 noundef %1) #8
  call void @llvm.lifetime.end.p0(i64 24, ptr nonnull %5) #8
  ret i8 1
}